target datalayout = "e-m:e-p270:32:32-p271:32:32-p272:64:64-i64:64-i128:128-f80:128-n8:16:32:64-S128"
target triple = "x86_64-pc-linux-gnu"

%struct.hb_paint_funcs_t = type { %struct.hb_object_header_t, %struct.anon, ptr, ptr }
%struct.hb_object_header_t = type { %struct.hb_reference_count_t, %struct.hb_atomic_int_t, %struct.hb_atomic_ptr_t }
%struct.hb_reference_count_t = type { %struct.hb_atomic_int_t }
%struct.hb_atomic_int_t = type { i32 }
%struct.hb_atomic_ptr_t = type { ptr }
%struct.anon = type { ptr, ptr, ptr, ptr, ptr, ptr, ptr, ptr, ptr, ptr, ptr, ptr, ptr, ptr }
%struct.anon.1 = type { ptr, ptr, ptr, ptr, ptr, ptr, ptr, ptr, ptr, ptr, ptr, ptr, ptr, ptr }

; Function Attrs: mustprogress uwtable
define linkonce_odr hidden void @_ZN16hb_paint_funcs_t14sweep_gradientEPvP15hb_color_line_tffff(ptr noundef nonnull align 8 dereferenceable(144) %0, ptr noundef %1, ptr noundef %2, float noundef %3, float noundef %4, float noundef %5, float noundef %6) #0 comdat align 2 {
  %8 = alloca ptr, align 8
  %9 = alloca ptr, align 8
  %10 = alloca ptr, align 8
  %11 = alloca float, align 4
  %12 = alloca float, align 4
  %13 = alloca float, align 4
  %14 = alloca float, align 4
  store ptr %0, ptr %8, align 8
  store ptr %1, ptr %9, align 8
  store ptr %2, ptr %10, align 8
  store float %3, ptr %11, align 4
  store float %4, ptr %12, align 4
  store float %5, ptr %13, align 4
  store float %6, ptr %14, align 4
  %15 = load ptr, ptr %8, align 8
  %16 = getelementptr inbounds %struct.hb_paint_funcs_t, ptr %15, i32 0, i32 1
  %17 = getelementptr inbounds %struct.anon, ptr %16, i32 0, i32 10
  %18 = load ptr, ptr %17, align 8
  %19 = load ptr, ptr %9, align 8
  %20 = load ptr, ptr %10, align 8
  %21 = load float, ptr %11, align 4
  %22 = load float, ptr %12, align 4
  %23 = load float, ptr %13, align 4
  %24 = load float, ptr %14, align 4
  %25 = getelementptr inbounds %struct.hb_paint_funcs_t, ptr %15, i32 0, i32 2
  %26 = load ptr, ptr %25, align 8
  %27 = icmp ne ptr %26, null
  br i1 %27, label %29, label %28

28:                                               ; preds = %7
  br label %34

29:                                               ; preds = %7
  %30 = getelementptr inbounds %struct.hb_paint_funcs_t, ptr %15, i32 0, i32 2
  %31 = load ptr, ptr %30, align 8
  %32 = getelementptr inbounds %struct.anon.1, ptr %31, i32 0, i32 10
  %33 = load ptr, ptr %32, align 8
  br label %34

34:                                               ; preds = %29, %28
  %35 = phi ptr [ null, %28 ], [ %33, %29 ]
  call void %18(ptr noundef %15, ptr noundef %19, ptr noundef %20, float noundef %21, float noundef %22, float noundef %23, float noundef %24, ptr noundef %35)
  ret void
}

; Function Attrs: mustprogress uwtable
define hidden void @hb_paint_sweep_gradient(ptr noundef %0, ptr noundef %1, ptr noundef %2, float noundef %3, float noundef %4, float noundef %5, float noundef %6) #0 {
  %8 = alloca ptr, align 8
  %9 = alloca ptr, align 8
  %10 = alloca ptr, align 8
  %11 = alloca float, align 4
  %12 = alloca float, align 4
  %13 = alloca float, align 4
  %14 = alloca float, align 4
  store ptr %0, ptr %8, align 8
  store ptr %1, ptr %9, align 8
  store ptr %2, ptr %10, align 8
  store float %3, ptr %11, align 4
  store float %4, ptr %12, align 4
  store float %5, ptr %13, align 4
  store float %6, ptr %14, align 4
  %15 = load ptr, ptr %8, align 8
  %16 = load ptr, ptr %9, align 8
  %17 = load ptr, ptr %10, align 8
  %18 = load float, ptr %11, align 4
  %19 = load float, ptr %12, align 4
  %20 = load float, ptr %13, align 4
  %21 = load float, ptr %14, align 4
  call void @_ZN16hb_paint_funcs_t14sweep_gradientEPvP15hb_color_line_tffff(ptr noundef nonnull align 8 dereferenceable(144) %15, ptr noundef %16, ptr noundef %17, float noundef %18, float noundef %19, float noundef %20, float noundef %21)
  ret void
}