; Function Attrs: mustprogress uwtable
define hidden void @hb_paint_sweep_gradient(ptr noundef %0, ptr noundef %1, ptr noundef %2, float noundef %3, float noundef %4, float noundef %5, float noundef %6) local_unnamed_addr #0 {
  %8 = getelementptr inbounds i8, ptr %0, i64 96
  %9 = load ptr, ptr %8, align 8
  %10 = getelementptr inbounds i8, ptr %0, i64 128
  %11 = load ptr, ptr %10, align 8
  %.not.i = icmp eq ptr %11, null
  br i1 %.not.i, label %_ZN16hb_paint_funcs_t14sweep_gradientEPvP15hb_color_line_tffff.exit, label %12

12:                                               ; preds = %7
  %13 = getelementptr inbounds i8, ptr %11, i64 80
  %14 = load ptr, ptr %13, align 8
  br label %_ZN16hb_paint_funcs_t14sweep_gradientEPvP15hb_color_line_tffff.exit

_ZN16hb_paint_funcs_t14sweep_gradientEPvP15hb_color_line_tffff.exit: ; preds = %7, %12
  %15 = phi ptr [ %14, %12 ], [ null, %7 ]
  tail call void %9(ptr noundef nonnull %0, ptr noundef %1, ptr noundef %2, float noundef %3, float noundef %4, float noundef %5, float noundef %6, ptr noundef %15)
  ret void
}